
a.out:     file format elf32-microblaze


Disassembly of section .all:

00000000 <__boot>:
       0:	b8000050 	bri	80		// 50
       4:	
00000008 <_exception_handler>:
       8:	b8000000 	bri	0	// 8 <_exception_handler>
       c:	
00000010 <_interrupt_handler>:
      10:	b8000000 	bri	0	// 10 <_interrupt_handler>
      14:	
00000018 <_break_handler>:
      18:	b8000000 	bri	0	// 18 <_break_handler>
      1c:	
00000020 <_hw_exception_handler>:
      20:	b8000000 	bri	0	// 20 <_hw_exception_handler>
	...
      50:	b000ffff 	imm	-1
      54:	3020fffc 	addik	r1, r0, -4
      58:	a0600002 	ori	r3, r0, 2
      5c:	9403c001 	mts	rmsr, r3
      60:	b0000000 	imm	0
      64:	b8000e10 	bri	3600	// e74 <main>

00000068 <_boot_end>:
      68:	b8000000 	bri	0	// 68 <_boot_end>

0000006c <microblaze_enable_interrupts>:
      6c:	3021fff8 	addik	r1, r1, -8
      70:	fa610004 	swi	r19, r1, 4
      74:	12610000 	addk	r19, r1, r0
      78:	a0600002 	ori	r3, r0, 2
      7c:	9403c001 	mts	rmsr, r3
      80:	10330000 	addk	r1, r19, r0
      84:	ea610004 	lwi	r19, r1, 4
      88:	30210008 	addik	r1, r1, 8
      8c:	b60f0008 	rtsd	r15, 8
      90:	80000000 	or	r0, r0, r0

00000094 <get_pixel>:
      94:	3021ffe8 	addik	r1, r1, -24
      98:	fa610014 	swi	r19, r1, 20
      9c:	12610000 	addk	r19, r1, r0
      a0:	f8b3001c 	swi	r5, r19, 28
      a4:	f8d30020 	swi	r6, r19, 32
      a8:	f8f30024 	swi	r7, r19, 36
      ac:	e8730020 	lwi	r3, r19, 32
      b0:	10801800 	addk	r4, r0, r3
      b4:	90830001 	sra	r4, r3
      b8:	90840001 	sra	r4, r4
      bc:	90840001 	sra	r4, r4
      c0:	90840001 	sra	r4, r4
      c4:	90840001 	sra	r4, r4
      c8:	90840001 	sra	r4, r4
      cc:	90840001 	sra	r4, r4
      d0:	90840001 	sra	r4, r4
      d4:	90840001 	sra	r4, r4
      d8:	90840001 	sra	r4, r4
      dc:	90840001 	sra	r4, r4
      e0:	90840001 	sra	r4, r4
      e4:	90840001 	sra	r4, r4
      e8:	90840001 	sra	r4, r4
      ec:	90840001 	sra	r4, r4
      f0:	90840001 	sra	r4, r4
      f4:	90840001 	sra	r4, r4
      f8:	90840001 	sra	r4, r4
      fc:	90840001 	sra	r4, r4
     100:	90840001 	sra	r4, r4
     104:	90840001 	sra	r4, r4
     108:	90840001 	sra	r4, r4
     10c:	90840001 	sra	r4, r4
     110:	90840001 	sra	r4, r4
     114:	90840001 	sra	r4, r4
     118:	90840001 	sra	r4, r4
     11c:	90840001 	sra	r4, r4
     120:	90840001 	sra	r4, r4
     124:	90840001 	sra	r4, r4
     128:	90840001 	sra	r4, r4
     12c:	90840001 	sra	r4, r4
     130:	a4840007 	andi	r4, r4, 7
     134:	10841800 	addk	r4, r4, r3
     138:	10602000 	addk	r3, r0, r4
     13c:	90640001 	sra	r3, r4
     140:	90630001 	sra	r3, r3
     144:	90630001 	sra	r3, r3
     148:	10a30000 	addk	r5, r3, r0
     14c:	e8930024 	lwi	r4, r19, 36
     150:	10640000 	addk	r3, r4, r0
     154:	10631800 	addk	r3, r3, r3
     158:	10631800 	addk	r3, r3, r3
     15c:	10632000 	addk	r3, r3, r4
     160:	10631800 	addk	r3, r3, r3
     164:	10631800 	addk	r3, r3, r3
     168:	10631800 	addk	r3, r3, r3
     16c:	10631800 	addk	r3, r3, r3
     170:	14641800 	rsubk	r3, r4, r3
     174:	10632000 	addk	r3, r3, r4
     178:	10651800 	addk	r3, r5, r3
     17c:	a483fffc 	andi	r4, r3, -4
     180:	e873001c 	lwi	r3, r19, 28
     184:	10641800 	addk	r3, r4, r3
     188:	f8730004 	swi	r3, r19, 4
     18c:	e8730020 	lwi	r3, r19, 32
     190:	a863ffff 	xori	r3, r3, -1
     194:	a463001f 	andi	r3, r3, 31
     198:	f8730008 	swi	r3, r19, 8
     19c:	f813000c 	swi	r0, r19, 12
     1a0:	30a00001 	addik	r5, r0, 1
     1a4:	e8930008 	lwi	r4, r19, 8
     1a8:	a644001f 	andi	r18, r4, 31
     1ac:	10602800 	addk	r3, r0, r5
     1b0:	be120014 	beqid	r18, 20		// 1c4
     1b4:	10630000 	addk	r3, r3, r0
     1b8:	3252ffff 	addik	r18, r18, -1
     1bc:	be32fffc 	bneid	r18, -4		// 1b8
     1c0:	10631800 	addk	r3, r3, r3
     1c4:	10830000 	addk	r4, r3, r0
     1c8:	e873000c 	lwi	r3, r19, 12
     1cc:	84841800 	and	r4, r4, r3
     1d0:	14640000 	rsubk	r3, r4, r0
     1d4:	80632000 	or	r3, r3, r4
     1d8:	10801800 	addk	r4, r0, r3
     1dc:	90830041 	srl	r4, r3
     1e0:	90840041 	srl	r4, r4
     1e4:	90840041 	srl	r4, r4
     1e8:	90840041 	srl	r4, r4
     1ec:	90840041 	srl	r4, r4
     1f0:	90840041 	srl	r4, r4
     1f4:	90840041 	srl	r4, r4
     1f8:	90840041 	srl	r4, r4
     1fc:	90840041 	srl	r4, r4
     200:	90840041 	srl	r4, r4
     204:	90840041 	srl	r4, r4
     208:	90840041 	srl	r4, r4
     20c:	90840041 	srl	r4, r4
     210:	90840041 	srl	r4, r4
     214:	90840041 	srl	r4, r4
     218:	90840041 	srl	r4, r4
     21c:	90840041 	srl	r4, r4
     220:	90840041 	srl	r4, r4
     224:	90840041 	srl	r4, r4
     228:	90840041 	srl	r4, r4
     22c:	90840041 	srl	r4, r4
     230:	90840041 	srl	r4, r4
     234:	90840041 	srl	r4, r4
     238:	90840041 	srl	r4, r4
     23c:	90840041 	srl	r4, r4
     240:	90840041 	srl	r4, r4
     244:	90840041 	srl	r4, r4
     248:	90840041 	srl	r4, r4
     24c:	90840041 	srl	r4, r4
     250:	90840041 	srl	r4, r4
     254:	90840041 	srl	r4, r4
     258:	f8930010 	swi	r4, r19, 16
     25c:	e8730010 	lwi	r3, r19, 16
     260:	10330000 	addk	r1, r19, r0
     264:	ea610014 	lwi	r19, r1, 20
     268:	30210018 	addik	r1, r1, 24
     26c:	b60f0008 	rtsd	r15, 8
     270:	80000000 	or	r0, r0, r0

00000274 <set_pixel>:
     274:	3021ffec 	addik	r1, r1, -20
     278:	fa610010 	swi	r19, r1, 16
     27c:	12610000 	addk	r19, r1, r0
     280:	f8b30018 	swi	r5, r19, 24
     284:	f8d3001c 	swi	r6, r19, 28
     288:	f8f30020 	swi	r7, r19, 32
     28c:	f9130024 	swi	r8, r19, 36
     290:	e873001c 	lwi	r3, r19, 28
     294:	10801800 	addk	r4, r0, r3
     298:	90830001 	sra	r4, r3
     29c:	90840001 	sra	r4, r4
     2a0:	90840001 	sra	r4, r4
     2a4:	90840001 	sra	r4, r4
     2a8:	90840001 	sra	r4, r4
     2ac:	90840001 	sra	r4, r4
     2b0:	90840001 	sra	r4, r4
     2b4:	90840001 	sra	r4, r4
     2b8:	90840001 	sra	r4, r4
     2bc:	90840001 	sra	r4, r4
     2c0:	90840001 	sra	r4, r4
     2c4:	90840001 	sra	r4, r4
     2c8:	90840001 	sra	r4, r4
     2cc:	90840001 	sra	r4, r4
     2d0:	90840001 	sra	r4, r4
     2d4:	90840001 	sra	r4, r4
     2d8:	90840001 	sra	r4, r4
     2dc:	90840001 	sra	r4, r4
     2e0:	90840001 	sra	r4, r4
     2e4:	90840001 	sra	r4, r4
     2e8:	90840001 	sra	r4, r4
     2ec:	90840001 	sra	r4, r4
     2f0:	90840001 	sra	r4, r4
     2f4:	90840001 	sra	r4, r4
     2f8:	90840001 	sra	r4, r4
     2fc:	90840001 	sra	r4, r4
     300:	90840001 	sra	r4, r4
     304:	90840001 	sra	r4, r4
     308:	90840001 	sra	r4, r4
     30c:	90840001 	sra	r4, r4
     310:	90840001 	sra	r4, r4
     314:	a4840007 	andi	r4, r4, 7
     318:	10841800 	addk	r4, r4, r3
     31c:	10602000 	addk	r3, r0, r4
     320:	90640001 	sra	r3, r4
     324:	90630001 	sra	r3, r3
     328:	90630001 	sra	r3, r3
     32c:	10a30000 	addk	r5, r3, r0
     330:	e8930020 	lwi	r4, r19, 32
     334:	10640000 	addk	r3, r4, r0
     338:	10631800 	addk	r3, r3, r3
     33c:	10631800 	addk	r3, r3, r3
     340:	10632000 	addk	r3, r3, r4
     344:	10631800 	addk	r3, r3, r3
     348:	10631800 	addk	r3, r3, r3
     34c:	10631800 	addk	r3, r3, r3
     350:	10631800 	addk	r3, r3, r3
     354:	14641800 	rsubk	r3, r4, r3
     358:	10632000 	addk	r3, r3, r4
     35c:	10651800 	addk	r3, r5, r3
     360:	a483fffc 	andi	r4, r3, -4
     364:	e8730018 	lwi	r3, r19, 24
     368:	10641800 	addk	r3, r4, r3
     36c:	f8730004 	swi	r3, r19, 4
     370:	e873001c 	lwi	r3, r19, 28
     374:	a863ffff 	xori	r3, r3, -1
     378:	a463001f 	andi	r3, r3, 31
     37c:	f8730008 	swi	r3, r19, 8
     380:	f813000c 	swi	r0, r19, 12
     384:	e8730024 	lwi	r3, r19, 36
     388:	bc030038 	beqi	r3, 56		// 3c0
     38c:	30a00001 	addik	r5, r0, 1
     390:	e8930008 	lwi	r4, r19, 8
     394:	a644001f 	andi	r18, r4, 31
     398:	10602800 	addk	r3, r0, r5
     39c:	be120014 	beqid	r18, 20		// 3b0
     3a0:	10630000 	addk	r3, r3, r0
     3a4:	3252ffff 	addik	r18, r18, -1
     3a8:	be32fffc 	bneid	r18, -4		// 3a4
     3ac:	10631800 	addk	r3, r3, r3
     3b0:	e893000c 	lwi	r4, r19, 12
     3b4:	80641800 	or	r3, r4, r3
     3b8:	f873000c 	swi	r3, r19, 12
     3bc:	b8000038 	bri	56		// 3f4
     3c0:	30a00001 	addik	r5, r0, 1
     3c4:	e8930008 	lwi	r4, r19, 8
     3c8:	a644001f 	andi	r18, r4, 31
     3cc:	10602800 	addk	r3, r0, r5
     3d0:	be120014 	beqid	r18, 20		// 3e4
     3d4:	10630000 	addk	r3, r3, r0
     3d8:	3252ffff 	addik	r18, r18, -1
     3dc:	be32fffc 	bneid	r18, -4		// 3d8
     3e0:	10631800 	addk	r3, r3, r3
     3e4:	a863ffff 	xori	r3, r3, -1
     3e8:	e893000c 	lwi	r4, r19, 12
     3ec:	84641800 	and	r3, r4, r3
     3f0:	f873000c 	swi	r3, r19, 12
     3f4:	10330000 	addk	r1, r19, r0
     3f8:	ea610010 	lwi	r19, r1, 16
     3fc:	30210014 	addik	r1, r1, 20
     400:	b60f0008 	rtsd	r15, 8
     404:	80000000 	or	r0, r0, r0

00000408 <clr_screen>:
     408:	3021fff0 	addik	r1, r1, -16
     40c:	fa61000c 	swi	r19, r1, 12
     410:	12610000 	addk	r19, r1, r0
     414:	f8b30014 	swi	r5, r19, 20
     418:	b0000000 	imm	0
     41c:	30609600 	addik	r3, r0, -27136
     420:	f8730008 	swi	r3, r19, 8
     424:	f8130004 	swi	r0, r19, 4
     428:	b8000010 	bri	16		// 438
     42c:	e8730004 	lwi	r3, r19, 4
     430:	30630004 	addik	r3, r3, 4
     434:	f8730004 	swi	r3, r19, 4
     438:	e8930004 	lwi	r4, r19, 4
     43c:	e8730008 	lwi	r3, r19, 8
     440:	14632001 	cmp	r3, r3, r4
     444:	bc43ffe8 	blti	r3, -24		// 42c
     448:	10330000 	addk	r1, r19, r0
     44c:	ea61000c 	lwi	r19, r1, 12
     450:	30210010 	addik	r1, r1, 16
     454:	b60f0008 	rtsd	r15, 8
     458:	80000000 	or	r0, r0, r0

0000045c <blank_screen>:
     45c:	3021fff0 	addik	r1, r1, -16
     460:	fa61000c 	swi	r19, r1, 12
     464:	12610000 	addk	r19, r1, r0
     468:	f8b30014 	swi	r5, r19, 20
     46c:	b0000000 	imm	0
     470:	30609600 	addik	r3, r0, -27136
     474:	f8730008 	swi	r3, r19, 8
     478:	f8130004 	swi	r0, r19, 4
     47c:	b8000010 	bri	16		// 48c
     480:	e8730004 	lwi	r3, r19, 4
     484:	30630004 	addik	r3, r3, 4
     488:	f8730004 	swi	r3, r19, 4
     48c:	e8930004 	lwi	r4, r19, 4
     490:	e8730008 	lwi	r3, r19, 8
     494:	14632001 	cmp	r3, r3, r4
     498:	bc43ffe8 	blti	r3, -24		// 480
     49c:	10330000 	addk	r1, r19, r0
     4a0:	ea61000c 	lwi	r19, r1, 12
     4a4:	30210010 	addik	r1, r1, 16
     4a8:	b60f0008 	rtsd	r15, 8
     4ac:	80000000 	or	r0, r0, r0

000004b0 <neighbors>:
     4b0:	3021ffdc 	addik	r1, r1, -36
     4b4:	f9e10000 	swi	r15, r1, 0
     4b8:	fa610020 	swi	r19, r1, 32
     4bc:	12610000 	addk	r19, r1, r0
     4c0:	f8b30028 	swi	r5, r19, 40
     4c4:	f8d3002c 	swi	r6, r19, 44
     4c8:	f8f30030 	swi	r7, r19, 48
     4cc:	f813001c 	swi	r0, r19, 28
     4d0:	e873002c 	lwi	r3, r19, 44
     4d4:	bc6300a4 	blei	r3, 164		// 578
     4d8:	e8730030 	lwi	r3, r19, 48
     4dc:	bc630034 	blei	r3, 52		// 510
     4e0:	e873002c 	lwi	r3, r19, 44
     4e4:	3083ffff 	addik	r4, r3, -1
     4e8:	e8730030 	lwi	r3, r19, 48
     4ec:	3063ffff 	addik	r3, r3, -1
     4f0:	e8b30028 	lwi	r5, r19, 40
     4f4:	10c40000 	addk	r6, r4, r0
     4f8:	10e30000 	addk	r7, r3, r0
     4fc:	b9f4fb98 	brlid	r15, -1128	// 94 <get_pixel>
     500:	80000000 	or	r0, r0, r0
     504:	e893001c 	lwi	r4, r19, 28
     508:	10641800 	addk	r3, r4, r3
     50c:	f873001c 	swi	r3, r19, 28
     510:	e873002c 	lwi	r3, r19, 44
     514:	3063ffff 	addik	r3, r3, -1
     518:	e8b30028 	lwi	r5, r19, 40
     51c:	10c30000 	addk	r6, r3, r0
     520:	e8f30030 	lwi	r7, r19, 48
     524:	b9f4fb70 	brlid	r15, -1168	// 94 <get_pixel>
     528:	80000000 	or	r0, r0, r0
     52c:	e893001c 	lwi	r4, r19, 28
     530:	10641800 	addk	r3, r4, r3
     534:	f873001c 	swi	r3, r19, 28
     538:	e8730030 	lwi	r3, r19, 48
     53c:	30800076 	addik	r4, r0, 118
     540:	14632001 	cmp	r3, r3, r4
     544:	bc430034 	blti	r3, 52		// 578
     548:	e873002c 	lwi	r3, r19, 44
     54c:	3083ffff 	addik	r4, r3, -1
     550:	e8730030 	lwi	r3, r19, 48
     554:	30630001 	addik	r3, r3, 1
     558:	e8b30028 	lwi	r5, r19, 40
     55c:	10c40000 	addk	r6, r4, r0
     560:	10e30000 	addk	r7, r3, r0
     564:	b9f4fb30 	brlid	r15, -1232	// 94 <get_pixel>
     568:	80000000 	or	r0, r0, r0
     56c:	e893001c 	lwi	r4, r19, 28
     570:	10641800 	addk	r3, r4, r3
     574:	f873001c 	swi	r3, r19, 28
     578:	e8730030 	lwi	r3, r19, 48
     57c:	bc63002c 	blei	r3, 44		// 5a8
     580:	e8730030 	lwi	r3, r19, 48
     584:	3063ffff 	addik	r3, r3, -1
     588:	e8b30028 	lwi	r5, r19, 40
     58c:	e8d3002c 	lwi	r6, r19, 44
     590:	10e30000 	addk	r7, r3, r0
     594:	b9f4fb00 	brlid	r15, -1280	// 94 <get_pixel>
     598:	80000000 	or	r0, r0, r0
     59c:	e893001c 	lwi	r4, r19, 28
     5a0:	10641800 	addk	r3, r4, r3
     5a4:	f873001c 	swi	r3, r19, 28
     5a8:	e8730030 	lwi	r3, r19, 48
     5ac:	30800076 	addik	r4, r0, 118
     5b0:	14632001 	cmp	r3, r3, r4
     5b4:	bc43002c 	blti	r3, 44		// 5e0
     5b8:	e8730030 	lwi	r3, r19, 48
     5bc:	30630001 	addik	r3, r3, 1
     5c0:	e8b30028 	lwi	r5, r19, 40
     5c4:	e8d3002c 	lwi	r6, r19, 44
     5c8:	10e30000 	addk	r7, r3, r0
     5cc:	b9f4fac8 	brlid	r15, -1336	// 94 <get_pixel>
     5d0:	80000000 	or	r0, r0, r0
     5d4:	e893001c 	lwi	r4, r19, 28
     5d8:	10641800 	addk	r3, r4, r3
     5dc:	f873001c 	swi	r3, r19, 28
     5e0:	e873002c 	lwi	r3, r19, 44
     5e4:	3080009e 	addik	r4, r0, 158
     5e8:	14632001 	cmp	r3, r3, r4
     5ec:	bc4300a4 	blti	r3, 164		// 690
     5f0:	e8730030 	lwi	r3, r19, 48
     5f4:	bc630034 	blei	r3, 52		// 628
     5f8:	e873002c 	lwi	r3, r19, 44
     5fc:	30830001 	addik	r4, r3, 1
     600:	e8730030 	lwi	r3, r19, 48
     604:	3063ffff 	addik	r3, r3, -1
     608:	e8b30028 	lwi	r5, r19, 40
     60c:	10c40000 	addk	r6, r4, r0
     610:	10e30000 	addk	r7, r3, r0
     614:	b9f4fa80 	brlid	r15, -1408	// 94 <get_pixel>
     618:	80000000 	or	r0, r0, r0
     61c:	e893001c 	lwi	r4, r19, 28
     620:	10641800 	addk	r3, r4, r3
     624:	f873001c 	swi	r3, r19, 28
     628:	e873002c 	lwi	r3, r19, 44
     62c:	30630001 	addik	r3, r3, 1
     630:	e8b30028 	lwi	r5, r19, 40
     634:	10c30000 	addk	r6, r3, r0
     638:	e8f30030 	lwi	r7, r19, 48
     63c:	b9f4fa58 	brlid	r15, -1448	// 94 <get_pixel>
     640:	80000000 	or	r0, r0, r0
     644:	e893001c 	lwi	r4, r19, 28
     648:	10641800 	addk	r3, r4, r3
     64c:	f873001c 	swi	r3, r19, 28
     650:	e8730030 	lwi	r3, r19, 48
     654:	30800076 	addik	r4, r0, 118
     658:	14632001 	cmp	r3, r3, r4
     65c:	bc430034 	blti	r3, 52		// 690
     660:	e873002c 	lwi	r3, r19, 44
     664:	30830001 	addik	r4, r3, 1
     668:	e8730030 	lwi	r3, r19, 48
     66c:	30630001 	addik	r3, r3, 1
     670:	e8b30028 	lwi	r5, r19, 40
     674:	10c40000 	addk	r6, r4, r0
     678:	10e30000 	addk	r7, r3, r0
     67c:	b9f4fa18 	brlid	r15, -1512	// 94 <get_pixel>
     680:	80000000 	or	r0, r0, r0
     684:	e893001c 	lwi	r4, r19, 28
     688:	10641800 	addk	r3, r4, r3
     68c:	f873001c 	swi	r3, r19, 28
     690:	e873001c 	lwi	r3, r19, 28
     694:	e9e10000 	lwi	r15, r1, 0
     698:	10330000 	addk	r1, r19, r0
     69c:	ea610020 	lwi	r19, r1, 32
     6a0:	30210024 	addik	r1, r1, 36
     6a4:	b60f0008 	rtsd	r15, 8
     6a8:	80000000 	or	r0, r0, r0

000006ac <game_of_life>:
     6ac:	3021ffd4 	addik	r1, r1, -44
     6b0:	f9e10000 	swi	r15, r1, 0
     6b4:	fa610028 	swi	r19, r1, 40
     6b8:	12610000 	addk	r19, r1, r0
     6bc:	f813001c 	swi	r0, r19, 28
     6c0:	b800012c 	bri	300		// 7ec
     6c4:	f8130020 	swi	r0, r19, 32
     6c8:	b8000108 	bri	264		// 7d0
     6cc:	b0000000 	imm	0
     6d0:	e8601274 	lwi	r3, r0, 4724	// 1274 <old_img_addr>
     6d4:	10a30000 	addk	r5, r3, r0
     6d8:	e8d3001c 	lwi	r6, r19, 28
     6dc:	e8f30020 	lwi	r7, r19, 32
     6e0:	b9f4fdd0 	brlid	r15, -560	// 4b0 <neighbors>
     6e4:	80000000 	or	r0, r0, r0
     6e8:	f8730024 	swi	r3, r19, 36
     6ec:	b0000000 	imm	0
     6f0:	e8601274 	lwi	r3, r0, 4724	// 1274 <old_img_addr>
     6f4:	10a30000 	addk	r5, r3, r0
     6f8:	e8d3001c 	lwi	r6, r19, 28
     6fc:	e8f30020 	lwi	r7, r19, 32
     700:	b9f4f994 	brlid	r15, -1644	// 94 <get_pixel>
     704:	80000000 	or	r0, r0, r0
     708:	bc03006c 	beqi	r3, 108		// 774
     70c:	e8730024 	lwi	r3, r19, 36
     710:	30800001 	addik	r4, r0, 1
     714:	14632001 	cmp	r3, r3, r4
     718:	bca30014 	bgei	r3, 20		// 72c
     71c:	e8730024 	lwi	r3, r19, 36
     720:	30800003 	addik	r4, r0, 3
     724:	14632001 	cmp	r3, r3, r4
     728:	bca30028 	bgei	r3, 40		// 750
     72c:	b0000000 	imm	0
     730:	e8601270 	lwi	r3, r0, 4720	// 1270 <new_img_addr>
     734:	10a30000 	addk	r5, r3, r0
     738:	e8d3001c 	lwi	r6, r19, 28
     73c:	e8f30020 	lwi	r7, r19, 32
     740:	11000000 	addk	r8, r0, r0
     744:	b9f4fb30 	brlid	r15, -1232	// 274 <set_pixel>
     748:	80000000 	or	r0, r0, r0
     74c:	b8000078 	bri	120		// 7c4
     750:	b0000000 	imm	0
     754:	e8601270 	lwi	r3, r0, 4720	// 1270 <new_img_addr>
     758:	10a30000 	addk	r5, r3, r0
     75c:	e8d3001c 	lwi	r6, r19, 28
     760:	e8f30020 	lwi	r7, r19, 32
     764:	31000001 	addik	r8, r0, 1
     768:	b9f4fb0c 	brlid	r15, -1268	// 274 <set_pixel>
     76c:	80000000 	or	r0, r0, r0
     770:	b8000054 	bri	84		// 7c4
     774:	e8730024 	lwi	r3, r19, 36
     778:	a8630003 	xori	r3, r3, 3
     77c:	bc230028 	bnei	r3, 40		// 7a4
     780:	b0000000 	imm	0
     784:	e8601270 	lwi	r3, r0, 4720	// 1270 <new_img_addr>
     788:	10a30000 	addk	r5, r3, r0
     78c:	e8d3001c 	lwi	r6, r19, 28
     790:	e8f30020 	lwi	r7, r19, 32
     794:	31000001 	addik	r8, r0, 1
     798:	b9f4fadc 	brlid	r15, -1316	// 274 <set_pixel>
     79c:	80000000 	or	r0, r0, r0
     7a0:	b8000024 	bri	36		// 7c4
     7a4:	b0000000 	imm	0
     7a8:	e8601270 	lwi	r3, r0, 4720	// 1270 <new_img_addr>
     7ac:	10a30000 	addk	r5, r3, r0
     7b0:	e8d3001c 	lwi	r6, r19, 28
     7b4:	e8f30020 	lwi	r7, r19, 32
     7b8:	11000000 	addk	r8, r0, r0
     7bc:	b9f4fab8 	brlid	r15, -1352	// 274 <set_pixel>
     7c0:	80000000 	or	r0, r0, r0
     7c4:	e8730020 	lwi	r3, r19, 32
     7c8:	30630001 	addik	r3, r3, 1
     7cc:	f8730020 	swi	r3, r19, 32
     7d0:	e8730020 	lwi	r3, r19, 32
     7d4:	30800077 	addik	r4, r0, 119
     7d8:	14632001 	cmp	r3, r3, r4
     7dc:	bca3fef0 	bgei	r3, -272		// 6cc
     7e0:	e873001c 	lwi	r3, r19, 28
     7e4:	30630001 	addik	r3, r3, 1
     7e8:	f873001c 	swi	r3, r19, 28
     7ec:	e873001c 	lwi	r3, r19, 28
     7f0:	3080009f 	addik	r4, r0, 159
     7f4:	14632001 	cmp	r3, r3, r4
     7f8:	bca3fecc 	bgei	r3, -308		// 6c4
     7fc:	e9e10000 	lwi	r15, r1, 0
     800:	10330000 	addk	r1, r19, r0
     804:	ea610028 	lwi	r19, r1, 40
     808:	3021002c 	addik	r1, r1, 44
     80c:	b60f0008 	rtsd	r15, 8
     810:	80000000 	or	r0, r0, r0

00000814 <draw_gun>:
     814:	3021ffe0 	addik	r1, r1, -32
     818:	f9e10000 	swi	r15, r1, 0
     81c:	fa61001c 	swi	r19, r1, 28
     820:	12610000 	addk	r19, r1, r0
     824:	f8b30024 	swi	r5, r19, 36
     828:	f8d30028 	swi	r6, r19, 40
     82c:	b0000000 	imm	0
     830:	e8a01274 	lwi	r5, r0, 4724	// 1274 <old_img_addr>
     834:	e8730024 	lwi	r3, r19, 36
     838:	30830001 	addik	r4, r3, 1
     83c:	e8730028 	lwi	r3, r19, 40
     840:	30630005 	addik	r3, r3, 5
     844:	10c40000 	addk	r6, r4, r0
     848:	10e30000 	addk	r7, r3, r0
     84c:	31000001 	addik	r8, r0, 1
     850:	b9f4fa24 	brlid	r15, -1500	// 274 <set_pixel>
     854:	80000000 	or	r0, r0, r0
     858:	b0000000 	imm	0
     85c:	e8a01274 	lwi	r5, r0, 4724	// 1274 <old_img_addr>
     860:	e8730024 	lwi	r3, r19, 36
     864:	30830001 	addik	r4, r3, 1
     868:	e8730028 	lwi	r3, r19, 40
     86c:	30630006 	addik	r3, r3, 6
     870:	10c40000 	addk	r6, r4, r0
     874:	10e30000 	addk	r7, r3, r0
     878:	31000001 	addik	r8, r0, 1
     87c:	b9f4f9f8 	brlid	r15, -1544	// 274 <set_pixel>
     880:	80000000 	or	r0, r0, r0
     884:	b0000000 	imm	0
     888:	e8a01274 	lwi	r5, r0, 4724	// 1274 <old_img_addr>
     88c:	e8730024 	lwi	r3, r19, 36
     890:	30830002 	addik	r4, r3, 2
     894:	e8730028 	lwi	r3, r19, 40
     898:	30630005 	addik	r3, r3, 5
     89c:	10c40000 	addk	r6, r4, r0
     8a0:	10e30000 	addk	r7, r3, r0
     8a4:	31000001 	addik	r8, r0, 1
     8a8:	b9f4f9cc 	brlid	r15, -1588	// 274 <set_pixel>
     8ac:	80000000 	or	r0, r0, r0
     8b0:	b0000000 	imm	0
     8b4:	e8a01274 	lwi	r5, r0, 4724	// 1274 <old_img_addr>
     8b8:	e8730024 	lwi	r3, r19, 36
     8bc:	30830002 	addik	r4, r3, 2
     8c0:	e8730028 	lwi	r3, r19, 40
     8c4:	30630006 	addik	r3, r3, 6
     8c8:	10c40000 	addk	r6, r4, r0
     8cc:	10e30000 	addk	r7, r3, r0
     8d0:	31000001 	addik	r8, r0, 1
     8d4:	b9f4f9a0 	brlid	r15, -1632	// 274 <set_pixel>
     8d8:	80000000 	or	r0, r0, r0
     8dc:	b0000000 	imm	0
     8e0:	e8a01274 	lwi	r5, r0, 4724	// 1274 <old_img_addr>
     8e4:	e8730024 	lwi	r3, r19, 36
     8e8:	3083000b 	addik	r4, r3, 11
     8ec:	e8730028 	lwi	r3, r19, 40
     8f0:	30630005 	addik	r3, r3, 5
     8f4:	10c40000 	addk	r6, r4, r0
     8f8:	10e30000 	addk	r7, r3, r0
     8fc:	31000001 	addik	r8, r0, 1
     900:	b9f4f974 	brlid	r15, -1676	// 274 <set_pixel>
     904:	80000000 	or	r0, r0, r0
     908:	b0000000 	imm	0
     90c:	e8a01274 	lwi	r5, r0, 4724	// 1274 <old_img_addr>
     910:	e8730024 	lwi	r3, r19, 36
     914:	3083000b 	addik	r4, r3, 11
     918:	e8730028 	lwi	r3, r19, 40
     91c:	30630006 	addik	r3, r3, 6
     920:	10c40000 	addk	r6, r4, r0
     924:	10e30000 	addk	r7, r3, r0
     928:	31000001 	addik	r8, r0, 1
     92c:	b9f4f948 	brlid	r15, -1720	// 274 <set_pixel>
     930:	80000000 	or	r0, r0, r0
     934:	b0000000 	imm	0
     938:	e8a01274 	lwi	r5, r0, 4724	// 1274 <old_img_addr>
     93c:	e8730024 	lwi	r3, r19, 36
     940:	3083000b 	addik	r4, r3, 11
     944:	e8730028 	lwi	r3, r19, 40
     948:	30630007 	addik	r3, r3, 7
     94c:	10c40000 	addk	r6, r4, r0
     950:	10e30000 	addk	r7, r3, r0
     954:	31000001 	addik	r8, r0, 1
     958:	b9f4f91c 	brlid	r15, -1764	// 274 <set_pixel>
     95c:	80000000 	or	r0, r0, r0
     960:	b0000000 	imm	0
     964:	e8a01274 	lwi	r5, r0, 4724	// 1274 <old_img_addr>
     968:	e8730024 	lwi	r3, r19, 36
     96c:	3083000c 	addik	r4, r3, 12
     970:	e8730028 	lwi	r3, r19, 40
     974:	30630004 	addik	r3, r3, 4
     978:	10c40000 	addk	r6, r4, r0
     97c:	10e30000 	addk	r7, r3, r0
     980:	31000001 	addik	r8, r0, 1
     984:	b9f4f8f0 	brlid	r15, -1808	// 274 <set_pixel>
     988:	80000000 	or	r0, r0, r0
     98c:	b0000000 	imm	0
     990:	e8a01274 	lwi	r5, r0, 4724	// 1274 <old_img_addr>
     994:	e8730024 	lwi	r3, r19, 36
     998:	3083000c 	addik	r4, r3, 12
     99c:	e8730028 	lwi	r3, r19, 40
     9a0:	30630008 	addik	r3, r3, 8
     9a4:	10c40000 	addk	r6, r4, r0
     9a8:	10e30000 	addk	r7, r3, r0
     9ac:	31000001 	addik	r8, r0, 1
     9b0:	b9f4f8c4 	brlid	r15, -1852	// 274 <set_pixel>
     9b4:	80000000 	or	r0, r0, r0
     9b8:	b0000000 	imm	0
     9bc:	e8a01274 	lwi	r5, r0, 4724	// 1274 <old_img_addr>
     9c0:	e8730024 	lwi	r3, r19, 36
     9c4:	3083000d 	addik	r4, r3, 13
     9c8:	e8730028 	lwi	r3, r19, 40
     9cc:	30630003 	addik	r3, r3, 3
     9d0:	10c40000 	addk	r6, r4, r0
     9d4:	10e30000 	addk	r7, r3, r0
     9d8:	31000001 	addik	r8, r0, 1
     9dc:	b9f4f898 	brlid	r15, -1896	// 274 <set_pixel>
     9e0:	80000000 	or	r0, r0, r0
     9e4:	b0000000 	imm	0
     9e8:	e8a01274 	lwi	r5, r0, 4724	// 1274 <old_img_addr>
     9ec:	e8730024 	lwi	r3, r19, 36
     9f0:	3083000d 	addik	r4, r3, 13
     9f4:	e8730028 	lwi	r3, r19, 40
     9f8:	30630009 	addik	r3, r3, 9
     9fc:	10c40000 	addk	r6, r4, r0
     a00:	10e30000 	addk	r7, r3, r0
     a04:	31000001 	addik	r8, r0, 1
     a08:	b9f4f86c 	brlid	r15, -1940	// 274 <set_pixel>
     a0c:	80000000 	or	r0, r0, r0
     a10:	b0000000 	imm	0
     a14:	e8a01274 	lwi	r5, r0, 4724	// 1274 <old_img_addr>
     a18:	e8730024 	lwi	r3, r19, 36
     a1c:	3083000e 	addik	r4, r3, 14
     a20:	e8730028 	lwi	r3, r19, 40
     a24:	30630003 	addik	r3, r3, 3
     a28:	10c40000 	addk	r6, r4, r0
     a2c:	10e30000 	addk	r7, r3, r0
     a30:	31000001 	addik	r8, r0, 1
     a34:	b9f4f840 	brlid	r15, -1984	// 274 <set_pixel>
     a38:	80000000 	or	r0, r0, r0
     a3c:	b0000000 	imm	0
     a40:	e8a01274 	lwi	r5, r0, 4724	// 1274 <old_img_addr>
     a44:	e8730024 	lwi	r3, r19, 36
     a48:	3083000e 	addik	r4, r3, 14
     a4c:	e8730028 	lwi	r3, r19, 40
     a50:	30630009 	addik	r3, r3, 9
     a54:	10c40000 	addk	r6, r4, r0
     a58:	10e30000 	addk	r7, r3, r0
     a5c:	31000001 	addik	r8, r0, 1
     a60:	b9f4f814 	brlid	r15, -2028	// 274 <set_pixel>
     a64:	80000000 	or	r0, r0, r0
     a68:	b0000000 	imm	0
     a6c:	e8a01274 	lwi	r5, r0, 4724	// 1274 <old_img_addr>
     a70:	e8730024 	lwi	r3, r19, 36
     a74:	3083000f 	addik	r4, r3, 15
     a78:	e8730028 	lwi	r3, r19, 40
     a7c:	30630006 	addik	r3, r3, 6
     a80:	10c40000 	addk	r6, r4, r0
     a84:	10e30000 	addk	r7, r3, r0
     a88:	31000001 	addik	r8, r0, 1
     a8c:	b9f4f7e8 	brlid	r15, -2072	// 274 <set_pixel>
     a90:	80000000 	or	r0, r0, r0
     a94:	b0000000 	imm	0
     a98:	e8a01274 	lwi	r5, r0, 4724	// 1274 <old_img_addr>
     a9c:	e8730024 	lwi	r3, r19, 36
     aa0:	30830010 	addik	r4, r3, 16
     aa4:	e8730028 	lwi	r3, r19, 40
     aa8:	30630004 	addik	r3, r3, 4
     aac:	10c40000 	addk	r6, r4, r0
     ab0:	10e30000 	addk	r7, r3, r0
     ab4:	31000001 	addik	r8, r0, 1
     ab8:	b9f4f7bc 	brlid	r15, -2116	// 274 <set_pixel>
     abc:	80000000 	or	r0, r0, r0
     ac0:	b0000000 	imm	0
     ac4:	e8a01274 	lwi	r5, r0, 4724	// 1274 <old_img_addr>
     ac8:	e8730024 	lwi	r3, r19, 36
     acc:	30830010 	addik	r4, r3, 16
     ad0:	e8730028 	lwi	r3, r19, 40
     ad4:	30630008 	addik	r3, r3, 8
     ad8:	10c40000 	addk	r6, r4, r0
     adc:	10e30000 	addk	r7, r3, r0
     ae0:	31000001 	addik	r8, r0, 1
     ae4:	b9f4f790 	brlid	r15, -2160	// 274 <set_pixel>
     ae8:	80000000 	or	r0, r0, r0
     aec:	b0000000 	imm	0
     af0:	e8a01274 	lwi	r5, r0, 4724	// 1274 <old_img_addr>
     af4:	e8730024 	lwi	r3, r19, 36
     af8:	30830011 	addik	r4, r3, 17
     afc:	e8730028 	lwi	r3, r19, 40
     b00:	30630005 	addik	r3, r3, 5
     b04:	10c40000 	addk	r6, r4, r0
     b08:	10e30000 	addk	r7, r3, r0
     b0c:	31000001 	addik	r8, r0, 1
     b10:	b9f4f764 	brlid	r15, -2204	// 274 <set_pixel>
     b14:	80000000 	or	r0, r0, r0
     b18:	b0000000 	imm	0
     b1c:	e8a01274 	lwi	r5, r0, 4724	// 1274 <old_img_addr>
     b20:	e8730024 	lwi	r3, r19, 36
     b24:	30830011 	addik	r4, r3, 17
     b28:	e8730028 	lwi	r3, r19, 40
     b2c:	30630006 	addik	r3, r3, 6
     b30:	10c40000 	addk	r6, r4, r0
     b34:	10e30000 	addk	r7, r3, r0
     b38:	31000001 	addik	r8, r0, 1
     b3c:	b9f4f738 	brlid	r15, -2248	// 274 <set_pixel>
     b40:	80000000 	or	r0, r0, r0
     b44:	b0000000 	imm	0
     b48:	e8a01274 	lwi	r5, r0, 4724	// 1274 <old_img_addr>
     b4c:	e8730024 	lwi	r3, r19, 36
     b50:	30830011 	addik	r4, r3, 17
     b54:	e8730028 	lwi	r3, r19, 40
     b58:	30630007 	addik	r3, r3, 7
     b5c:	10c40000 	addk	r6, r4, r0
     b60:	10e30000 	addk	r7, r3, r0
     b64:	31000001 	addik	r8, r0, 1
     b68:	b9f4f70c 	brlid	r15, -2292	// 274 <set_pixel>
     b6c:	80000000 	or	r0, r0, r0
     b70:	b0000000 	imm	0
     b74:	e8a01274 	lwi	r5, r0, 4724	// 1274 <old_img_addr>
     b78:	e8730024 	lwi	r3, r19, 36
     b7c:	30830012 	addik	r4, r3, 18
     b80:	e8730028 	lwi	r3, r19, 40
     b84:	30630006 	addik	r3, r3, 6
     b88:	10c40000 	addk	r6, r4, r0
     b8c:	10e30000 	addk	r7, r3, r0
     b90:	31000001 	addik	r8, r0, 1
     b94:	b9f4f6e0 	brlid	r15, -2336	// 274 <set_pixel>
     b98:	80000000 	or	r0, r0, r0
     b9c:	b0000000 	imm	0
     ba0:	e8a01274 	lwi	r5, r0, 4724	// 1274 <old_img_addr>
     ba4:	e8730024 	lwi	r3, r19, 36
     ba8:	30830015 	addik	r4, r3, 21
     bac:	e8730028 	lwi	r3, r19, 40
     bb0:	30630003 	addik	r3, r3, 3
     bb4:	10c40000 	addk	r6, r4, r0
     bb8:	10e30000 	addk	r7, r3, r0
     bbc:	31000001 	addik	r8, r0, 1
     bc0:	b9f4f6b4 	brlid	r15, -2380	// 274 <set_pixel>
     bc4:	80000000 	or	r0, r0, r0
     bc8:	b0000000 	imm	0
     bcc:	e8a01274 	lwi	r5, r0, 4724	// 1274 <old_img_addr>
     bd0:	e8730024 	lwi	r3, r19, 36
     bd4:	30830015 	addik	r4, r3, 21
     bd8:	e8730028 	lwi	r3, r19, 40
     bdc:	30630004 	addik	r3, r3, 4
     be0:	10c40000 	addk	r6, r4, r0
     be4:	10e30000 	addk	r7, r3, r0
     be8:	31000001 	addik	r8, r0, 1
     bec:	b9f4f688 	brlid	r15, -2424	// 274 <set_pixel>
     bf0:	80000000 	or	r0, r0, r0
     bf4:	b0000000 	imm	0
     bf8:	e8a01274 	lwi	r5, r0, 4724	// 1274 <old_img_addr>
     bfc:	e8730024 	lwi	r3, r19, 36
     c00:	30830015 	addik	r4, r3, 21
     c04:	e8730028 	lwi	r3, r19, 40
     c08:	30630005 	addik	r3, r3, 5
     c0c:	10c40000 	addk	r6, r4, r0
     c10:	10e30000 	addk	r7, r3, r0
     c14:	31000001 	addik	r8, r0, 1
     c18:	b9f4f65c 	brlid	r15, -2468	// 274 <set_pixel>
     c1c:	80000000 	or	r0, r0, r0
     c20:	b0000000 	imm	0
     c24:	e8a01274 	lwi	r5, r0, 4724	// 1274 <old_img_addr>
     c28:	e8730024 	lwi	r3, r19, 36
     c2c:	30830016 	addik	r4, r3, 22
     c30:	e8730028 	lwi	r3, r19, 40
     c34:	30630003 	addik	r3, r3, 3
     c38:	10c40000 	addk	r6, r4, r0
     c3c:	10e30000 	addk	r7, r3, r0
     c40:	31000001 	addik	r8, r0, 1
     c44:	b9f4f630 	brlid	r15, -2512	// 274 <set_pixel>
     c48:	80000000 	or	r0, r0, r0
     c4c:	b0000000 	imm	0
     c50:	e8a01274 	lwi	r5, r0, 4724	// 1274 <old_img_addr>
     c54:	e8730024 	lwi	r3, r19, 36
     c58:	30830016 	addik	r4, r3, 22
     c5c:	e8730028 	lwi	r3, r19, 40
     c60:	30630004 	addik	r3, r3, 4
     c64:	10c40000 	addk	r6, r4, r0
     c68:	10e30000 	addk	r7, r3, r0
     c6c:	31000001 	addik	r8, r0, 1
     c70:	b9f4f604 	brlid	r15, -2556	// 274 <set_pixel>
     c74:	80000000 	or	r0, r0, r0
     c78:	b0000000 	imm	0
     c7c:	e8a01274 	lwi	r5, r0, 4724	// 1274 <old_img_addr>
     c80:	e8730024 	lwi	r3, r19, 36
     c84:	30830016 	addik	r4, r3, 22
     c88:	e8730028 	lwi	r3, r19, 40
     c8c:	30630005 	addik	r3, r3, 5
     c90:	10c40000 	addk	r6, r4, r0
     c94:	10e30000 	addk	r7, r3, r0
     c98:	31000001 	addik	r8, r0, 1
     c9c:	b9f4f5d8 	brlid	r15, -2600	// 274 <set_pixel>
     ca0:	80000000 	or	r0, r0, r0
     ca4:	b0000000 	imm	0
     ca8:	e8a01274 	lwi	r5, r0, 4724	// 1274 <old_img_addr>
     cac:	e8730024 	lwi	r3, r19, 36
     cb0:	30830017 	addik	r4, r3, 23
     cb4:	e8730028 	lwi	r3, r19, 40
     cb8:	30630002 	addik	r3, r3, 2
     cbc:	10c40000 	addk	r6, r4, r0
     cc0:	10e30000 	addk	r7, r3, r0
     cc4:	31000001 	addik	r8, r0, 1
     cc8:	b9f4f5ac 	brlid	r15, -2644	// 274 <set_pixel>
     ccc:	80000000 	or	r0, r0, r0
     cd0:	b0000000 	imm	0
     cd4:	e8a01274 	lwi	r5, r0, 4724	// 1274 <old_img_addr>
     cd8:	e8730024 	lwi	r3, r19, 36
     cdc:	30830017 	addik	r4, r3, 23
     ce0:	e8730028 	lwi	r3, r19, 40
     ce4:	30630006 	addik	r3, r3, 6
     ce8:	10c40000 	addk	r6, r4, r0
     cec:	10e30000 	addk	r7, r3, r0
     cf0:	31000001 	addik	r8, r0, 1
     cf4:	b9f4f580 	brlid	r15, -2688	// 274 <set_pixel>
     cf8:	80000000 	or	r0, r0, r0
     cfc:	b0000000 	imm	0
     d00:	e8a01274 	lwi	r5, r0, 4724	// 1274 <old_img_addr>
     d04:	e8730024 	lwi	r3, r19, 36
     d08:	30830019 	addik	r4, r3, 25
     d0c:	e8730028 	lwi	r3, r19, 40
     d10:	30630001 	addik	r3, r3, 1
     d14:	10c40000 	addk	r6, r4, r0
     d18:	10e30000 	addk	r7, r3, r0
     d1c:	31000001 	addik	r8, r0, 1
     d20:	b9f4f554 	brlid	r15, -2732	// 274 <set_pixel>
     d24:	80000000 	or	r0, r0, r0
     d28:	b0000000 	imm	0
     d2c:	e8a01274 	lwi	r5, r0, 4724	// 1274 <old_img_addr>
     d30:	e8730024 	lwi	r3, r19, 36
     d34:	30830019 	addik	r4, r3, 25
     d38:	e8730028 	lwi	r3, r19, 40
     d3c:	30630002 	addik	r3, r3, 2
     d40:	10c40000 	addk	r6, r4, r0
     d44:	10e30000 	addk	r7, r3, r0
     d48:	31000001 	addik	r8, r0, 1
     d4c:	b9f4f528 	brlid	r15, -2776	// 274 <set_pixel>
     d50:	80000000 	or	r0, r0, r0
     d54:	b0000000 	imm	0
     d58:	e8a01274 	lwi	r5, r0, 4724	// 1274 <old_img_addr>
     d5c:	e8730024 	lwi	r3, r19, 36
     d60:	30830019 	addik	r4, r3, 25
     d64:	e8730028 	lwi	r3, r19, 40
     d68:	30630006 	addik	r3, r3, 6
     d6c:	10c40000 	addk	r6, r4, r0
     d70:	10e30000 	addk	r7, r3, r0
     d74:	31000001 	addik	r8, r0, 1
     d78:	b9f4f4fc 	brlid	r15, -2820	// 274 <set_pixel>
     d7c:	80000000 	or	r0, r0, r0
     d80:	b0000000 	imm	0
     d84:	e8a01274 	lwi	r5, r0, 4724	// 1274 <old_img_addr>
     d88:	e8730024 	lwi	r3, r19, 36
     d8c:	30830019 	addik	r4, r3, 25
     d90:	e8730028 	lwi	r3, r19, 40
     d94:	30630007 	addik	r3, r3, 7
     d98:	10c40000 	addk	r6, r4, r0
     d9c:	10e30000 	addk	r7, r3, r0
     da0:	31000001 	addik	r8, r0, 1
     da4:	b9f4f4d0 	brlid	r15, -2864	// 274 <set_pixel>
     da8:	80000000 	or	r0, r0, r0
     dac:	b0000000 	imm	0
     db0:	e8a01274 	lwi	r5, r0, 4724	// 1274 <old_img_addr>
     db4:	e8730024 	lwi	r3, r19, 36
     db8:	30830023 	addik	r4, r3, 35
     dbc:	e8730028 	lwi	r3, r19, 40
     dc0:	30630003 	addik	r3, r3, 3
     dc4:	10c40000 	addk	r6, r4, r0
     dc8:	10e30000 	addk	r7, r3, r0
     dcc:	31000001 	addik	r8, r0, 1
     dd0:	b9f4f4a4 	brlid	r15, -2908	// 274 <set_pixel>
     dd4:	80000000 	or	r0, r0, r0
     dd8:	b0000000 	imm	0
     ddc:	e8a01274 	lwi	r5, r0, 4724	// 1274 <old_img_addr>
     de0:	e8730024 	lwi	r3, r19, 36
     de4:	30830023 	addik	r4, r3, 35
     de8:	e8730028 	lwi	r3, r19, 40
     dec:	30630004 	addik	r3, r3, 4
     df0:	10c40000 	addk	r6, r4, r0
     df4:	10e30000 	addk	r7, r3, r0
     df8:	31000001 	addik	r8, r0, 1
     dfc:	b9f4f478 	brlid	r15, -2952	// 274 <set_pixel>
     e00:	80000000 	or	r0, r0, r0
     e04:	b0000000 	imm	0
     e08:	e8a01274 	lwi	r5, r0, 4724	// 1274 <old_img_addr>
     e0c:	e8730024 	lwi	r3, r19, 36
     e10:	30830024 	addik	r4, r3, 36
     e14:	e8730028 	lwi	r3, r19, 40
     e18:	30630003 	addik	r3, r3, 3
     e1c:	10c40000 	addk	r6, r4, r0
     e20:	10e30000 	addk	r7, r3, r0
     e24:	31000001 	addik	r8, r0, 1
     e28:	b9f4f44c 	brlid	r15, -2996	// 274 <set_pixel>
     e2c:	80000000 	or	r0, r0, r0
     e30:	b0000000 	imm	0
     e34:	e8a01274 	lwi	r5, r0, 4724	// 1274 <old_img_addr>
     e38:	e8730024 	lwi	r3, r19, 36
     e3c:	30830024 	addik	r4, r3, 36
     e40:	e8730028 	lwi	r3, r19, 40
     e44:	30630004 	addik	r3, r3, 4
     e48:	10c40000 	addk	r6, r4, r0
     e4c:	10e30000 	addk	r7, r3, r0
     e50:	31000001 	addik	r8, r0, 1
     e54:	b9f4f420 	brlid	r15, -3040	// 274 <set_pixel>
     e58:	80000000 	or	r0, r0, r0
     e5c:	e9e10000 	lwi	r15, r1, 0
     e60:	10330000 	addk	r1, r19, r0
     e64:	ea61001c 	lwi	r19, r1, 28
     e68:	30210020 	addik	r1, r1, 32
     e6c:	b60f0008 	rtsd	r15, 8
     e70:	80000000 	or	r0, r0, r0

00000e74 <main>:
     e74:	3021ffdc 	addik	r1, r1, -36
     e78:	f9e10000 	swi	r15, r1, 0
     e7c:	fa610020 	swi	r19, r1, 32
     e80:	12610000 	addk	r19, r1, r0
     e84:	b0000000 	imm	0
     e88:	f800126c 	swi	r0, r0, 4716	// 126c <_edata>
     e8c:	b0000001 	imm	1
     e90:	30606600 	addik	r3, r0, 26112
     e94:	b0000000 	imm	0
     e98:	f8601274 	swi	r3, r0, 4724	// 1274 <old_img_addr>
     e9c:	b0000000 	imm	0
     ea0:	e8601274 	lwi	r3, r0, 4724	// 1274 <old_img_addr>
     ea4:	b000ffff 	imm	-1
     ea8:	30636a00 	addik	r3, r3, 27136
     eac:	b0000000 	imm	0
     eb0:	f8601270 	swi	r3, r0, 4720	// 1270 <new_img_addr>
     eb4:	b0000000 	imm	0
     eb8:	e8601274 	lwi	r3, r0, 4724	// 1274 <old_img_addr>
     ebc:	10a30000 	addk	r5, r3, r0
     ec0:	b9f4f548 	brlid	r15, -2744	// 408 <clr_screen>
     ec4:	80000000 	or	r0, r0, r0
     ec8:	10a00000 	addk	r5, r0, r0
     ecc:	30c0001e 	addik	r6, r0, 30
     ed0:	b9f4f944 	brlid	r15, -1724	// 814 <draw_gun>
     ed4:	80000000 	or	r0, r0, r0
     ed8:	b0000000 	imm	0
     edc:	e8601274 	lwi	r3, r0, 4724	// 1274 <old_img_addr>
     ee0:	10a30000 	addk	r5, r3, r0
     ee4:	30c00014 	addik	r6, r0, 20
     ee8:	30e0000a 	addik	r7, r0, 10
     eec:	31000001 	addik	r8, r0, 1
     ef0:	b9f4f384 	brlid	r15, -3196	// 274 <set_pixel>
     ef4:	80000000 	or	r0, r0, r0
     ef8:	b0000000 	imm	0
     efc:	e8601274 	lwi	r3, r0, 4724	// 1274 <old_img_addr>
     f00:	10a30000 	addk	r5, r3, r0
     f04:	30c00014 	addik	r6, r0, 20
     f08:	30e0000b 	addik	r7, r0, 11
     f0c:	31000001 	addik	r8, r0, 1
     f10:	b9f4f364 	brlid	r15, -3228	// 274 <set_pixel>
     f14:	80000000 	or	r0, r0, r0
     f18:	b0000000 	imm	0
     f1c:	e8601274 	lwi	r3, r0, 4724	// 1274 <old_img_addr>
     f20:	10a30000 	addk	r5, r3, r0
     f24:	30c00014 	addik	r6, r0, 20
     f28:	30e0000c 	addik	r7, r0, 12
     f2c:	31000001 	addik	r8, r0, 1
     f30:	b9f4f344 	brlid	r15, -3260	// 274 <set_pixel>
     f34:	80000000 	or	r0, r0, r0
     f38:	b0000000 	imm	0
     f3c:	e8601274 	lwi	r3, r0, 4724	// 1274 <old_img_addr>
     f40:	10a30000 	addk	r5, r3, r0
     f44:	30c0001e 	addik	r6, r0, 30
     f48:	30e0000a 	addik	r7, r0, 10
     f4c:	31000001 	addik	r8, r0, 1
     f50:	b9f4f324 	brlid	r15, -3292	// 274 <set_pixel>
     f54:	80000000 	or	r0, r0, r0
     f58:	b0000000 	imm	0
     f5c:	e8601274 	lwi	r3, r0, 4724	// 1274 <old_img_addr>
     f60:	10a30000 	addk	r5, r3, r0
     f64:	30c0001f 	addik	r6, r0, 31
     f68:	30e0000a 	addik	r7, r0, 10
     f6c:	31000001 	addik	r8, r0, 1
     f70:	b9f4f304 	brlid	r15, -3324	// 274 <set_pixel>
     f74:	80000000 	or	r0, r0, r0
     f78:	b0000000 	imm	0
     f7c:	e8601274 	lwi	r3, r0, 4724	// 1274 <old_img_addr>
     f80:	10a30000 	addk	r5, r3, r0
     f84:	30c00020 	addik	r6, r0, 32	// 20 <_hw_exception_handler>
     f88:	30e0000a 	addik	r7, r0, 10
     f8c:	31000001 	addik	r8, r0, 1
     f90:	b9f4f2e4 	brlid	r15, -3356	// 274 <set_pixel>
     f94:	80000000 	or	r0, r0, r0
     f98:	b0000000 	imm	0
     f9c:	e8601274 	lwi	r3, r0, 4724	// 1274 <old_img_addr>
     fa0:	10a30000 	addk	r5, r3, r0
     fa4:	30c00020 	addik	r6, r0, 32	// 20 <_hw_exception_handler>
     fa8:	30e0001e 	addik	r7, r0, 30
     fac:	31000001 	addik	r8, r0, 1
     fb0:	b9f4f2c4 	brlid	r15, -3388	// 274 <set_pixel>
     fb4:	80000000 	or	r0, r0, r0
     fb8:	b9f4f0b4 	brlid	r15, -3916	// 6c <microblaze_enable_interrupts>
     fbc:	80000000 	or	r0, r0, r0
     fc0:	b0000000 	imm	0
     fc4:	e8601274 	lwi	r3, r0, 4724	// 1274 <old_img_addr>
     fc8:	10a30000 	addk	r5, r3, r0
     fcc:	30c0000b 	addik	r6, r0, 11
     fd0:	30e0000a 	addik	r7, r0, 10
     fd4:	31000001 	addik	r8, r0, 1
     fd8:	b9f4f29c 	brlid	r15, -3428	// 274 <set_pixel>
     fdc:	80000000 	or	r0, r0, r0
     fe0:	b0000000 	imm	0
     fe4:	e8601274 	lwi	r3, r0, 4724	// 1274 <old_img_addr>
     fe8:	10a30000 	addk	r5, r3, r0
     fec:	30c0000c 	addik	r6, r0, 12
     ff0:	30e0000b 	addik	r7, r0, 11
     ff4:	31000001 	addik	r8, r0, 1
     ff8:	b9f4f27c 	brlid	r15, -3460	// 274 <set_pixel>
     ffc:	80000000 	or	r0, r0, r0
    1000:	b0000000 	imm	0
    1004:	e8601274 	lwi	r3, r0, 4724	// 1274 <old_img_addr>
    1008:	10a30000 	addk	r5, r3, r0
    100c:	30c0000a 	addik	r6, r0, 10
    1010:	30e0000c 	addik	r7, r0, 12
    1014:	31000001 	addik	r8, r0, 1
    1018:	b9f4f25c 	brlid	r15, -3492	// 274 <set_pixel>
    101c:	80000000 	or	r0, r0, r0
    1020:	b0000000 	imm	0
    1024:	e8601274 	lwi	r3, r0, 4724	// 1274 <old_img_addr>
    1028:	10a30000 	addk	r5, r3, r0
    102c:	30c0000b 	addik	r6, r0, 11
    1030:	30e0000c 	addik	r7, r0, 12
    1034:	31000001 	addik	r8, r0, 1
    1038:	b9f4f23c 	brlid	r15, -3524	// 274 <set_pixel>
    103c:	80000000 	or	r0, r0, r0
    1040:	b0000000 	imm	0
    1044:	e8601274 	lwi	r3, r0, 4724	// 1274 <old_img_addr>
    1048:	10a30000 	addk	r5, r3, r0
    104c:	30c0000c 	addik	r6, r0, 12
    1050:	30e0000c 	addik	r7, r0, 12
    1054:	31000001 	addik	r8, r0, 1
    1058:	b9f4f21c 	brlid	r15, -3556	// 274 <set_pixel>
    105c:	80000000 	or	r0, r0, r0
    1060:	b0000000 	imm	0
    1064:	e8601274 	lwi	r3, r0, 4724	// 1274 <old_img_addr>
    1068:	10a30000 	addk	r5, r3, r0
    106c:	30c00033 	addik	r6, r0, 51
    1070:	30e0000a 	addik	r7, r0, 10
    1074:	31000001 	addik	r8, r0, 1
    1078:	b9f4f1fc 	brlid	r15, -3588	// 274 <set_pixel>
    107c:	80000000 	or	r0, r0, r0
    1080:	b0000000 	imm	0
    1084:	e8601274 	lwi	r3, r0, 4724	// 1274 <old_img_addr>
    1088:	10a30000 	addk	r5, r3, r0
    108c:	30c00032 	addik	r6, r0, 50
    1090:	30e0000b 	addik	r7, r0, 11
    1094:	31000001 	addik	r8, r0, 1
    1098:	b9f4f1dc 	brlid	r15, -3620	// 274 <set_pixel>
    109c:	80000000 	or	r0, r0, r0
    10a0:	b0000000 	imm	0
    10a4:	e8601274 	lwi	r3, r0, 4724	// 1274 <old_img_addr>
    10a8:	10a30000 	addk	r5, r3, r0
    10ac:	30c00034 	addik	r6, r0, 52
    10b0:	30e0000c 	addik	r7, r0, 12
    10b4:	31000001 	addik	r8, r0, 1
    10b8:	b9f4f1bc 	brlid	r15, -3652	// 274 <set_pixel>
    10bc:	80000000 	or	r0, r0, r0
    10c0:	b0000000 	imm	0
    10c4:	e8601274 	lwi	r3, r0, 4724	// 1274 <old_img_addr>
    10c8:	10a30000 	addk	r5, r3, r0
    10cc:	30c00033 	addik	r6, r0, 51
    10d0:	30e0000c 	addik	r7, r0, 12
    10d4:	31000001 	addik	r8, r0, 1
    10d8:	b9f4f19c 	brlid	r15, -3684	// 274 <set_pixel>
    10dc:	80000000 	or	r0, r0, r0
    10e0:	b0000000 	imm	0
    10e4:	e8601274 	lwi	r3, r0, 4724	// 1274 <old_img_addr>
    10e8:	10a30000 	addk	r5, r3, r0
    10ec:	30c00032 	addik	r6, r0, 50
    10f0:	30e0000c 	addik	r7, r0, 12
    10f4:	31000001 	addik	r8, r0, 1
    10f8:	b9f4f17c 	brlid	r15, -3716	// 274 <set_pixel>
    10fc:	80000000 	or	r0, r0, r0
    1100:	b8000008 	bri	8		// 1108
    1104:	80000000 	or	r0, r0, r0
    1108:	f813001c 	swi	r0, r19, 28
    110c:	e873001c 	lwi	r3, r19, 28
    1110:	a4630001 	andi	r3, r3, 1
    1114:	a46300ff 	andi	r3, r3, 255
    1118:	bc03ffec 	beqi	r3, -20		// 1104
    111c:	80000000 	or	r0, r0, r0
    1120:	b800fea0 	bri	-352		// fc0

00001124 <vga_isr>:
    1124:	3021fff8 	addik	r1, r1, -8
    1128:	fa610004 	swi	r19, r1, 4
    112c:	12610000 	addk	r19, r1, r0
    1130:	b0000000 	imm	0
    1134:	e860126c 	lwi	r3, r0, 4716	// 126c <_edata>
    1138:	bc03000c 	beqi	r3, 12		// 1144
    113c:	b0000000 	imm	0
    1140:	f800126c 	swi	r0, r0, 4716	// 126c <_edata>
    1144:	10330000 	addk	r1, r19, r0
    1148:	ea610004 	lwi	r19, r1, 4
    114c:	30210008 	addik	r1, r1, 8
    1150:	b60f0008 	rtsd	r15, 8
    1154:	80000000 	or	r0, r0, r0

00001158 <timer_0_isr>:
    1158:	3021ffdc 	addik	r1, r1, -36
    115c:	f9e10000 	swi	r15, r1, 0
    1160:	fa610020 	swi	r19, r1, 32
    1164:	12610000 	addk	r19, r1, r0
    1168:	b9f4f544 	brlid	r15, -2748	// 6ac <game_of_life>
    116c:	80000000 	or	r0, r0, r0
    1170:	b0000000 	imm	0
    1174:	e8601274 	lwi	r3, r0, 4724	// 1274 <old_img_addr>
    1178:	f873001c 	swi	r3, r19, 28
    117c:	b0000000 	imm	0
    1180:	e8601270 	lwi	r3, r0, 4720	// 1270 <new_img_addr>
    1184:	b0000000 	imm	0
    1188:	f8601274 	swi	r3, r0, 4724	// 1274 <old_img_addr>
    118c:	e873001c 	lwi	r3, r19, 28
    1190:	b0000000 	imm	0
    1194:	f8601270 	swi	r3, r0, 4720	// 1270 <new_img_addr>
    1198:	30600001 	addik	r3, r0, 1
    119c:	b0000000 	imm	0
    11a0:	f860126c 	swi	r3, r0, 4716	// 126c <_edata>
    11a4:	e9e10000 	lwi	r15, r1, 0
    11a8:	10330000 	addk	r1, r19, r0
    11ac:	ea610020 	lwi	r19, r1, 32
    11b0:	30210024 	addik	r1, r1, 36
    11b4:	b60f0008 	rtsd	r15, 8
    11b8:	80000000 	or	r0, r0, r0

000011bc <timer_1_isr>:
    11bc:	3021fff8 	addik	r1, r1, -8
    11c0:	fa610004 	swi	r19, r1, 4
    11c4:	12610000 	addk	r19, r1, r0
    11c8:	10330000 	addk	r1, r19, r0
    11cc:	ea610004 	lwi	r19, r1, 4
    11d0:	30210008 	addik	r1, r1, 8
    11d4:	b60f0008 	rtsd	r15, 8
    11d8:	80000000 	or	r0, r0, r0

000011dc <interrupt_handler>:
    11dc:	3021ffd0 	addik	r1, r1, -48
    11e0:	f9e10000 	swi	r15, r1, 0
    11e4:	fa61002c 	swi	r19, r1, 44
    11e8:	12610000 	addk	r19, r1, r0
    11ec:	30600001 	addik	r3, r0, 1
    11f0:	b0000000 	imm	0
    11f4:	f8601278 	swi	r3, r0, 4728	// 1278 <irq_received>
    11f8:	b0000000 	imm	0
    11fc:	e860127c 	lwi	r3, r0, 4732	// 127c <count.2261>
    1200:	30630001 	addik	r3, r3, 1
    1204:	b0000000 	imm	0
    1208:	f860127c 	swi	r3, r0, 4732	// 127c <count.2261>
    120c:	f813001c 	swi	r0, r19, 28
    1210:	f8130020 	swi	r0, r19, 32
    1214:	e8730020 	lwi	r3, r19, 32
    1218:	bc03000c 	beqi	r3, 12		// 1224
    121c:	b9f4ff08 	brlid	r15, -248	// 1124 <vga_isr>
    1220:	80000000 	or	r0, r0, r0
    1224:	f8130024 	swi	r0, r19, 36
    1228:	e8730024 	lwi	r3, r19, 36
    122c:	a4630100 	andi	r3, r3, 256
    1230:	bc03000c 	beqi	r3, 12		// 123c
    1234:	b9f4ff24 	brlid	r15, -220	// 1158 <timer_0_isr>
    1238:	80000000 	or	r0, r0, r0
    123c:	f8130028 	swi	r0, r19, 40
    1240:	e8730028 	lwi	r3, r19, 40
    1244:	a4630100 	andi	r3, r3, 256
    1248:	bc03000c 	beqi	r3, 12		// 1254
    124c:	b9f4ff70 	brlid	r15, -144	// 11bc <timer_1_isr>
    1250:	80000000 	or	r0, r0, r0
    1254:	e9e10000 	lwi	r15, r1, 0
    1258:	10330000 	addk	r1, r19, r0
    125c:	ea61002c 	lwi	r19, r1, 44
    1260:	30210030 	addik	r1, r1, 48
    1264:	b60f0008 	rtsd	r15, 8
    1268:	80000000 	or	r0, r0, r0

0000126c <_edata>:
    126c:	
00001270 <new_img_addr>:
    1270:	00000000                                ....

00001274 <old_img_addr>:
    1274:	00000000                                ....
